; Function Attrs: mustprogress nofree norecurse nounwind willreturn uwtable
define void @_ZN10open_spiel10algorithms16CFRAveragePolicyC2ERKSt13unordered_mapINSt7__cxx1112basic_stringIcSt11char_traitsIcESaIcEEENS0_18CFRInfoStateValuesESt4hashIS8_ESt8equal_toIS8_ESaISt4pairIKS8_S9_EEESt10shared_ptrINS_6PolicyEE(ptr nocapture noundef nonnull writeonly align 8 dereferenceable(40) %0, ptr noundef nonnull align 8 dereferenceable(56) %1, ptr nocapture noundef readonly %2) unnamed_addr #3 align 2 personality ptr @__gxx_personality_v0 {
  store ptr getelementptr inbounds inrange(-16, 80) (i8, ptr @_ZTVN10open_spiel10algorithms16CFRAveragePolicyE, i64 16), ptr %0, align 8
  %4 = getelementptr inbounds nuw i8, ptr %0, i64 8
  store ptr %1, ptr %4, align 8
  %5 = getelementptr inbounds nuw i8, ptr %0, i64 16
  store ptr getelementptr inbounds inrange(-16, 80) (i8, ptr @_ZTVN10open_spiel13UniformPolicyE, i64 16), ptr %5, align 8
  %6 = getelementptr inbounds nuw i8, ptr %0, i64 24
  %7 = load ptr, ptr %2, align 8
  store ptr %7, ptr %6, align 8
  %8 = getelementptr inbounds i8, ptr %0, i64 32
  %9 = getelementptr inbounds nuw i8, ptr %2, i64 8
  %10 = load ptr, ptr %9, align 8
  store ptr %10, ptr %8, align 8
  %.not.i.i.i = icmp eq ptr %10, null
  br i1 %.not.i.i.i, label %_ZNSt10shared_ptrIN10open_spiel6PolicyEEC2ERKS2_.exit, label %11

11:                                               ; preds = %3
  %12 = getelementptr inbounds nuw i8, ptr %10, i64 8
  %13 = load i8, ptr @__libc_single_threaded, align 1
  %.not.i.i.i.i = icmp eq i8 %13, 0
  br i1 %.not.i.i.i.i, label %17, label %14

14:                                               ; preds = %11
  %15 = load i32, ptr %12, align 4
  %16 = add nsw i32 %15, 1
  store i32 %16, ptr %12, align 4
  br label %_ZNSt10shared_ptrIN10open_spiel6PolicyEEC2ERKS2_.exit

17:                                               ; preds = %11
  %18 = atomicrmw volatile add ptr %12, i32 1 acq_rel, align 4
  br label %_ZNSt10shared_ptrIN10open_spiel6PolicyEEC2ERKS2_.exit

_ZNSt10shared_ptrIN10open_spiel6PolicyEEC2ERKS2_.exit: ; preds = %3, %14, %17
  ret void
}